target datalayout = "e-m:e-p270:32:32-p271:32:32-p272:64:64-i64:64-i128:128-f80:128-n8:16:32:64-S128"
target triple = "x86_64-pc-linux-gnu"

; Function Attrs: nounwind uwtable
define internal void @fweight_row16(ptr noundef %0, ptr noundef %1, ptr noundef %2, i32 noundef %3, i32 noundef %4, i32 noundef %5, i32 noundef %6, i32 noundef %7, ptr noundef %8) #1 {
  %10 = alloca ptr, align 8
  %11 = alloca ptr, align 8
  %12 = alloca ptr, align 8
  %13 = alloca i32, align 4
  %14 = alloca i32, align 4
  %15 = alloca i32, align 4
  %16 = alloca i32, align 4
  %17 = alloca i32, align 4
  %18 = alloca ptr, align 8
  %19 = alloca ptr, align 8
  %20 = alloca ptr, align 8
  %21 = alloca ptr, align 8
  %22 = alloca i32, align 4
  %23 = alloca i32, align 4
  %24 = alloca i32, align 4
  %25 = alloca i32, align 4
  %26 = alloca i32, align 4
  %27 = alloca i32, align 4
  %28 = alloca i32, align 4
  %29 = alloca float, align 4
  %30 = alloca float, align 4
  %31 = alloca i32, align 4
  %32 = alloca i32, align 4
  %33 = alloca i32, align 4
  %34 = alloca i32, align 4
  store ptr %0, ptr %10, align 8, !tbaa !31
  store ptr %1, ptr %11, align 8, !tbaa !31
  store ptr %2, ptr %12, align 8, !tbaa !85
  store i32 %3, ptr %13, align 4, !tbaa !32
  store i32 %4, ptr %14, align 4, !tbaa !32
  store i32 %5, ptr %15, align 4, !tbaa !32
  store i32 %6, ptr %16, align 4, !tbaa !32
  store i32 %7, ptr %17, align 4, !tbaa !32
  store ptr %8, ptr %18, align 8, !tbaa !83
  call void @llvm.lifetime.start.p0(i64 8, ptr %19) #9
  %35 = load ptr, ptr %10, align 8, !tbaa !31
  store ptr %35, ptr %19, align 8, !tbaa !100
  call void @llvm.lifetime.start.p0(i64 8, ptr %20) #9
  %36 = load ptr, ptr %12, align 8, !tbaa !85
  store ptr %36, ptr %20, align 8, !tbaa !102
  call void @llvm.lifetime.start.p0(i64 8, ptr %21) #9
  %37 = load ptr, ptr %11, align 8, !tbaa !31
  store ptr %37, ptr %21, align 8, !tbaa !100
  call void @llvm.lifetime.start.p0(i64 4, ptr %22) #9
  store i32 0, ptr %22, align 4, !tbaa !32
  br label %38

38:                                               ; preds = %189, %9
  %39 = load i32, ptr %22, align 4, !tbaa !32
  %40 = load i32, ptr %13, align 4, !tbaa !32
  %41 = icmp slt i32 %39, %40
  br i1 %41, label %43, label %42

42:                                               ; preds = %38
  store i32 2, ptr %23, align 4
  call void @llvm.lifetime.end.p0(i64 4, ptr %22) #9
  br label %192

43:                                               ; preds = %38
  call void @llvm.lifetime.start.p0(i64 4, ptr %24) #9
  %44 = load ptr, ptr %19, align 8, !tbaa !100
  %45 = load i32, ptr %22, align 4, !tbaa !32
  %46 = sext i32 %45 to i64
  %47 = getelementptr inbounds i16, ptr %44, i64 %46
  %48 = load i16, ptr %47, align 2, !tbaa !104
  %49 = zext i16 %48 to i32
  store i32 %49, ptr %24, align 4, !tbaa !32
  call void @llvm.lifetime.start.p0(i64 4, ptr %25) #9
  store i32 0, ptr %25, align 4, !tbaa !32
  call void @llvm.lifetime.start.p0(i64 4, ptr %26) #9
  store i32 0, ptr %26, align 4, !tbaa !32
  call void @llvm.lifetime.start.p0(i64 4, ptr %27) #9
  call void @llvm.lifetime.start.p0(i64 4, ptr %28) #9
  call void @llvm.lifetime.start.p0(i64 4, ptr %29) #9
  %50 = load i32, ptr %24, align 4, !tbaa !32
  %51 = sitofp i32 %50 to float
  store float %51, ptr %29, align 4, !tbaa !71
  call void @llvm.lifetime.start.p0(i64 4, ptr %30) #9
  store float 1.000000e+00, ptr %30, align 4, !tbaa !71
  call void @llvm.lifetime.start.p0(i64 4, ptr %31) #9
  call void @llvm.lifetime.start.p0(i64 4, ptr %32) #9
  call void @llvm.lifetime.start.p0(i64 4, ptr %33) #9
  %52 = load i32, ptr %14, align 4, !tbaa !32
  %53 = sub nsw i32 %52, 1
  store i32 %53, ptr %33, align 4, !tbaa !32
  call void @llvm.lifetime.start.p0(i64 4, ptr %34) #9
  %54 = load i32, ptr %14, align 4, !tbaa !32
  %55 = add nsw i32 %54, 1
  store i32 %55, ptr %34, align 4, !tbaa !32
  br label %56

56:                                               ; preds = %173, %43
  %57 = load i32, ptr %33, align 4, !tbaa !32
  %58 = icmp sge i32 %57, 0
  br i1 %58, label %59, label %63

59:                                               ; preds = %56
  %60 = load i32, ptr %34, align 4, !tbaa !32
  %61 = load i32, ptr %15, align 4, !tbaa !32
  %62 = icmp slt i32 %60, %61
  br label %63

63:                                               ; preds = %59, %56
  %64 = phi i1 [ false, %56 ], [ %62, %59 ]
  br i1 %64, label %66, label %65

65:                                               ; preds = %63
  store i32 5, ptr %23, align 4
  br label %178

66:                                               ; preds = %63
  %67 = load ptr, ptr %20, align 8, !tbaa !102
  %68 = load i32, ptr %33, align 4, !tbaa !32
  %69 = sext i32 %68 to i64
  %70 = getelementptr inbounds ptr, ptr %67, i64 %69
  %71 = load ptr, ptr %70, align 8, !tbaa !100
  %72 = load i32, ptr %22, align 4, !tbaa !32
  %73 = sext i32 %72 to i64
  %74 = getelementptr inbounds i16, ptr %71, i64 %73
  %75 = load i16, ptr %74, align 2, !tbaa !104
  %76 = zext i16 %75 to i32
  store i32 %76, ptr %31, align 4, !tbaa !32
  %77 = load i32, ptr %24, align 4, !tbaa !32
  %78 = load i32, ptr %31, align 4, !tbaa !32
  %79 = sub nsw i32 %77, %78
  %80 = icmp sge i32 %79, 0
  br i1 %80, label %81, label %85

81:                                               ; preds = %66
  %82 = load i32, ptr %24, align 4, !tbaa !32
  %83 = load i32, ptr %31, align 4, !tbaa !32
  %84 = sub nsw i32 %82, %83
  br label %90

85:                                               ; preds = %66
  %86 = load i32, ptr %24, align 4, !tbaa !32
  %87 = load i32, ptr %31, align 4, !tbaa !32
  %88 = sub nsw i32 %86, %87
  %89 = sub nsw i32 0, %88
  br label %90

90:                                               ; preds = %85, %81
  %91 = phi i32 [ %84, %81 ], [ %89, %85 ]
  store i32 %91, ptr %27, align 4, !tbaa !32
  %92 = load i32, ptr %27, align 4, !tbaa !32
  %93 = load i32, ptr %25, align 4, !tbaa !32
  %94 = add i32 %93, %92
  store i32 %94, ptr %25, align 4, !tbaa !32
  %95 = load i32, ptr %27, align 4, !tbaa !32
  %96 = load i32, ptr %16, align 4, !tbaa !32
  %97 = icmp ugt i32 %95, %96
  br i1 %97, label %102, label %98

98:                                               ; preds = %90
  %99 = load i32, ptr %25, align 4, !tbaa !32
  %100 = load i32, ptr %17, align 4, !tbaa !32
  %101 = icmp ugt i32 %99, %100
  br i1 %101, label %102, label %103

102:                                              ; preds = %98, %90
  store i32 5, ptr %23, align 4
  br label %178

103:                                              ; preds = %98
  %104 = load i32, ptr %31, align 4, !tbaa !32
  %105 = sitofp i32 %104 to float
  %106 = load ptr, ptr %18, align 8, !tbaa !83
  %107 = load i32, ptr %33, align 4, !tbaa !32
  %108 = sext i32 %107 to i64
  %109 = getelementptr inbounds float, ptr %106, i64 %108
  %110 = load float, ptr %109, align 4, !tbaa !71
  %111 = load float, ptr %29, align 4, !tbaa !71
  %112 = call nsz float @llvm.fmuladd.f32(float %105, float %110, float %111)
  store float %112, ptr %29, align 4, !tbaa !71
  %113 = load ptr, ptr %18, align 8, !tbaa !83
  %114 = load i32, ptr %33, align 4, !tbaa !32
  %115 = sext i32 %114 to i64
  %116 = getelementptr inbounds float, ptr %113, i64 %115
  %117 = load float, ptr %116, align 4, !tbaa !71
  %118 = load float, ptr %30, align 4, !tbaa !71
  %119 = fadd nsz float %118, %117
  store float %119, ptr %30, align 4, !tbaa !71
  %120 = load ptr, ptr %20, align 8, !tbaa !102
  %121 = load i32, ptr %34, align 4, !tbaa !32
  %122 = sext i32 %121 to i64
  %123 = getelementptr inbounds ptr, ptr %120, i64 %122
  %124 = load ptr, ptr %123, align 8, !tbaa !100
  %125 = load i32, ptr %22, align 4, !tbaa !32
  %126 = sext i32 %125 to i64
  %127 = getelementptr inbounds i16, ptr %124, i64 %126
  %128 = load i16, ptr %127, align 2, !tbaa !104
  %129 = zext i16 %128 to i32
  store i32 %129, ptr %32, align 4, !tbaa !32
  %130 = load i32, ptr %24, align 4, !tbaa !32
  %131 = load i32, ptr %32, align 4, !tbaa !32
  %132 = sub nsw i32 %130, %131
  %133 = icmp sge i32 %132, 0
  br i1 %133, label %134, label %138

134:                                              ; preds = %103
  %135 = load i32, ptr %24, align 4, !tbaa !32
  %136 = load i32, ptr %32, align 4, !tbaa !32
  %137 = sub nsw i32 %135, %136
  br label %143

138:                                              ; preds = %103
  %139 = load i32, ptr %24, align 4, !tbaa !32
  %140 = load i32, ptr %32, align 4, !tbaa !32
  %141 = sub nsw i32 %139, %140
  %142 = sub nsw i32 0, %141
  br label %143

143:                                              ; preds = %138, %134
  %144 = phi i32 [ %137, %134 ], [ %142, %138 ]
  store i32 %144, ptr %28, align 4, !tbaa !32
  %145 = load i32, ptr %28, align 4, !tbaa !32
  %146 = load i32, ptr %26, align 4, !tbaa !32
  %147 = add i32 %146, %145
  store i32 %147, ptr %26, align 4, !tbaa !32
  %148 = load i32, ptr %28, align 4, !tbaa !32
  %149 = load i32, ptr %16, align 4, !tbaa !32
  %150 = icmp ugt i32 %148, %149
  br i1 %150, label %155, label %151

151:                                              ; preds = %143
  %152 = load i32, ptr %26, align 4, !tbaa !32
  %153 = load i32, ptr %17, align 4, !tbaa !32
  %154 = icmp ugt i32 %152, %153
  br i1 %154, label %155, label %156

155:                                              ; preds = %151, %143
  store i32 5, ptr %23, align 4
  br label %178

156:                                              ; preds = %151
  %157 = load i32, ptr %32, align 4, !tbaa !32
  %158 = sitofp i32 %157 to float
  %159 = load ptr, ptr %18, align 8, !tbaa !83
  %160 = load i32, ptr %34, align 4, !tbaa !32
  %161 = sext i32 %160 to i64
  %162 = getelementptr inbounds float, ptr %159, i64 %161
  %163 = load float, ptr %162, align 4, !tbaa !71
  %164 = load float, ptr %29, align 4, !tbaa !71
  %165 = call nsz float @llvm.fmuladd.f32(float %158, float %163, float %164)
  store float %165, ptr %29, align 4, !tbaa !71
  %166 = load ptr, ptr %18, align 8, !tbaa !83
  %167 = load i32, ptr %34, align 4, !tbaa !32
  %168 = sext i32 %167 to i64
  %169 = getelementptr inbounds float, ptr %166, i64 %168
  %170 = load float, ptr %169, align 4, !tbaa !71
  %171 = load float, ptr %30, align 4, !tbaa !71
  %172 = fadd nsz float %171, %170
  store float %172, ptr %30, align 4, !tbaa !71
  br label %173

173:                                              ; preds = %156
  %174 = load i32, ptr %33, align 4, !tbaa !32
  %175 = add nsw i32 %174, -1
  store i32 %175, ptr %33, align 4, !tbaa !32
  %176 = load i32, ptr %34, align 4, !tbaa !32
  %177 = add nsw i32 %176, 1
  store i32 %177, ptr %34, align 4, !tbaa !32
  br label %56, !llvm.loop !115

178:                                              ; preds = %155, %102, %65
  call void @llvm.lifetime.end.p0(i64 4, ptr %34) #9
  call void @llvm.lifetime.end.p0(i64 4, ptr %33) #9
  br label %179

179:                                              ; preds = %178
  %180 = load float, ptr %29, align 4, !tbaa !71
  %181 = load float, ptr %30, align 4, !tbaa !71
  %182 = fdiv nsz float %180, %181
  %183 = call i64 @llvm.lrint.i64.f32(float %182)
  %184 = trunc i64 %183 to i16
  %185 = load ptr, ptr %21, align 8, !tbaa !100
  %186 = load i32, ptr %22, align 4, !tbaa !32
  %187 = sext i32 %186 to i64
  %188 = getelementptr inbounds i16, ptr %185, i64 %187
  store i16 %184, ptr %188, align 2, !tbaa !104
  call void @llvm.lifetime.end.p0(i64 4, ptr %32) #9
  call void @llvm.lifetime.end.p0(i64 4, ptr %31) #9
  call void @llvm.lifetime.end.p0(i64 4, ptr %30) #9
  call void @llvm.lifetime.end.p0(i64 4, ptr %29) #9
  call void @llvm.lifetime.end.p0(i64 4, ptr %28) #9
  call void @llvm.lifetime.end.p0(i64 4, ptr %27) #9
  call void @llvm.lifetime.end.p0(i64 4, ptr %26) #9
  call void @llvm.lifetime.end.p0(i64 4, ptr %25) #9
  call void @llvm.lifetime.end.p0(i64 4, ptr %24) #9
  br label %189

189:                                              ; preds = %179
  %190 = load i32, ptr %22, align 4, !tbaa !32
  %191 = add nsw i32 %190, 1
  store i32 %191, ptr %22, align 4, !tbaa !32
  br label %38, !llvm.loop !116

192:                                              ; preds = %42
  call void @llvm.lifetime.end.p0(i64 8, ptr %21) #9
  call void @llvm.lifetime.end.p0(i64 8, ptr %20) #9
  call void @llvm.lifetime.end.p0(i64 8, ptr %19) #9
  ret void
}